target datalayout = "e-m:e-p270:32:32-p271:32:32-p272:64:64-i64:64-i128:128-f80:128-n8:16:32:64-S128"
target triple = "x86_64-pc-linux-gnu"

%"class.std::shared_ptr" = type { %"class.std::__shared_ptr" }
%"class.std::__shared_ptr" = type { ptr, %"class.std::__shared_count" }
%"class.std::__shared_count" = type { ptr }
%"class.std::function" = type { %"class.std::_Function_base", ptr }
%"class.std::_Function_base" = type { %"union.std::_Any_data", ptr }
%"union.std::_Any_data" = type { %"union.std::_Nocopy_types" }
%"union.std::_Nocopy_types" = type { { i64, i64 } }
%"class.faiss::WorkerThread" = type { %"class.std::thread", %"class.std::mutex", %"class.std::condition_variable", i8, %"class.std::deque" }
%"class.std::thread" = type { %"class.std::thread::id" }
%"class.std::thread::id" = type { i64 }
%"class.std::mutex" = type { %"class.std::__mutex_base" }
%"class.std::__mutex_base" = type { %union.pthread_mutex_t }
%union.pthread_mutex_t = type { %struct.__pthread_mutex_s }
%struct.__pthread_mutex_s = type { i32, i32, i32, i32, i32, i16, i16, %struct.__pthread_internal_list }
%struct.__pthread_internal_list = type { ptr, ptr }
%"class.std::condition_variable" = type { %"class.std::__condvar" }
%"class.std::__condvar" = type { %union.pthread_cond_t }
%union.pthread_cond_t = type { %struct.__pthread_cond_s }
%struct.__pthread_cond_s = type { %union.__atomic_wide_counter, %union.__atomic_wide_counter, [2 x i32], [2 x i32], i32, i32, [2 x i32] }
%union.__atomic_wide_counter = type { i64 }
%"class.std::deque" = type { %"class.std::_Deque_base" }
%"class.std::_Deque_base" = type { %"struct.std::_Deque_base<std::pair<std::function<void ()>, std::promise<bool>>, std::allocator<std::pair<std::function<void ()>, std::promise<bool>>>>::_Deque_impl" }
%"struct.std::_Deque_base<std::pair<std::function<void ()>, std::promise<bool>>, std::allocator<std::pair<std::function<void ()>, std::promise<bool>>>>::_Deque_impl" = type { %"struct.std::_Deque_base<std::pair<std::function<void ()>, std::promise<bool>>, std::allocator<std::pair<std::function<void ()>, std::promise<bool>>>>::_Deque_impl_data" }
%"struct.std::_Deque_base<std::pair<std::function<void ()>, std::promise<bool>>, std::allocator<std::pair<std::function<void ()>, std::promise<bool>>>>::_Deque_impl_data" = type { ptr, i64, %"struct.std::_Deque_iterator", %"struct.std::_Deque_iterator" }
%"struct.std::_Deque_iterator" = type { ptr, ptr, ptr, ptr }
%"class.std::promise" = type { %"class.std::shared_ptr", %"class.std::unique_ptr" }
%"class.std::unique_ptr" = type { %"struct.std::__uniq_ptr_data" }
%"struct.std::__uniq_ptr_data" = type { %"class.std::__uniq_ptr_impl" }
%"class.std::__uniq_ptr_impl" = type { %"class.std::tuple" }
%"class.std::tuple" = type { %"struct.std::_Tuple_impl" }
%"struct.std::_Tuple_impl" = type { %"struct.std::_Head_base.1" }
%"struct.std::_Head_base.1" = type { ptr }
%"struct.std::pair" = type { %"class.std::function", %"class.std::promise" }

@stderr = external global ptr, align 8
@.str.4 = private unnamed_addr constant [44 x i8] c"Faiss assertion '%s' failed in %s at %s:%d\0A\00", align 1
@.str.5 = private unnamed_addr constant [10 x i8] c"wantStop_\00", align 1
@__PRETTY_FUNCTION__._ZN5faiss12WorkerThread10threadMainEv = private unnamed_addr constant [39 x i8] c"void faiss::WorkerThread::threadMain()\00", align 1
@.str.6 = private unnamed_addr constant [118 x i8] c"generated/home/dtcxzyw/WorkSpace/Projects/compilers/llvm-opt-benchmark/bench/faiss/faiss/faiss/utils/WorkerThread.cpp\00", align 1

; Function Attrs: inlinehint mustprogress nounwind uwtable
define linkonce_odr noundef i64 @_ZSt16__deque_buf_sizem(i64 noundef %0) #4 comdat {
  %2 = alloca i64, align 8
  store i64 %0, ptr %2, align 8, !tbaa !63
  %3 = load i64, ptr %2, align 8, !tbaa !63
  %4 = icmp ult i64 %3, 512
  br i1 %4, label %5, label %8

5:                                                ; preds = %1
  %6 = load i64, ptr %2, align 8, !tbaa !63
  %7 = udiv i64 512, %6
  br label %9

8:                                                ; preds = %1
  br label %9

9:                                                ; preds = %8, %5
  %10 = phi i64 [ %7, %5 ], [ 1, %8 ]
  ret i64 %10
}

; Function Attrs: mustprogress nounwind uwtable
define linkonce_odr noundef i64 @_ZNSt15_Deque_iteratorISt4pairISt8functionIFvvEESt7promiseIbEERS6_PS6_E14_S_buffer_sizeEv() #1 comdat align 2 {
  %1 = call noundef i64 @_ZSt16__deque_buf_sizem(i64 noundef 56)
  ret i64 %1
}

; Function Attrs: mustprogress nounwind uwtable
define linkonce_odr void @_ZNSt15_Deque_iteratorISt4pairISt8functionIFvvEESt7promiseIbEERS6_PS6_E11_M_set_nodeEPS8_(ptr noundef nonnull align 8 dereferenceable(32) %0, ptr noundef %1) #1 comdat align 2 {
  %3 = alloca ptr, align 8
  %4 = alloca ptr, align 8
  store ptr %0, ptr %3, align 8, !tbaa !77
  store ptr %1, ptr %4, align 8, !tbaa !66
  %5 = load ptr, ptr %3, align 8
  %6 = load ptr, ptr %4, align 8, !tbaa !66
  %7 = getelementptr inbounds nuw %"struct.std::_Deque_iterator", ptr %5, i32 0, i32 3
  store ptr %6, ptr %7, align 8, !tbaa !82
  %8 = load ptr, ptr %4, align 8, !tbaa !66
  %9 = load ptr, ptr %8, align 8, !tbaa !85
  %10 = getelementptr inbounds nuw %"struct.std::_Deque_iterator", ptr %5, i32 0, i32 1
  store ptr %9, ptr %10, align 8, !tbaa !80
  %11 = getelementptr inbounds nuw %"struct.std::_Deque_iterator", ptr %5, i32 0, i32 1
  %12 = load ptr, ptr %11, align 8, !tbaa !80
  %13 = call noundef i64 @_ZNSt15_Deque_iteratorISt4pairISt8functionIFvvEESt7promiseIbEERS6_PS6_E14_S_buffer_sizeEv() #22
  %14 = getelementptr inbounds %"struct.std::pair", ptr %12, i64 %13
  %15 = getelementptr inbounds nuw %"struct.std::_Deque_iterator", ptr %5, i32 0, i32 2
  store ptr %14, ptr %15, align 8, !tbaa !81
  ret void
}

; Function Attrs: mustprogress nounwind uwtable
define linkonce_odr noundef zeroext i1 @_ZSteqRKSt15_Deque_iteratorISt4pairISt8functionIFvvEESt7promiseIbEERS6_PS6_ESB_(ptr noundef nonnull align 8 dereferenceable(32) %0, ptr noundef nonnull align 8 dereferenceable(32) %1) #1 comdat {
  %3 = alloca ptr, align 8
  %4 = alloca ptr, align 8
  store ptr %0, ptr %3, align 8, !tbaa !77
  store ptr %1, ptr %4, align 8, !tbaa !77
  %5 = load ptr, ptr %3, align 8, !tbaa !77
  %6 = getelementptr inbounds nuw %"struct.std::_Deque_iterator", ptr %5, i32 0, i32 0
  %7 = load ptr, ptr %6, align 8, !tbaa !79
  %8 = load ptr, ptr %4, align 8, !tbaa !77
  %9 = getelementptr inbounds nuw %"struct.std::_Deque_iterator", ptr %8, i32 0, i32 0
  %10 = load ptr, ptr %9, align 8, !tbaa !79
  %11 = icmp eq ptr %7, %10
  ret i1 %11
}

; Function Attrs: mustprogress nounwind uwtable
define linkonce_odr void @_ZNSt15_Deque_iteratorISt4pairISt8functionIFvvEESt7promiseIbEERS6_PS6_EC2ERKS9_(ptr noundef nonnull align 8 dereferenceable(32) %0, ptr noundef nonnull align 8 dereferenceable(32) %1) unnamed_addr #1 comdat align 2 {
  %3 = alloca ptr, align 8
  %4 = alloca ptr, align 8
  store ptr %0, ptr %3, align 8, !tbaa !77
  store ptr %1, ptr %4, align 8, !tbaa !77
  %5 = load ptr, ptr %3, align 8
  %6 = getelementptr inbounds nuw %"struct.std::_Deque_iterator", ptr %5, i32 0, i32 0
  %7 = load ptr, ptr %4, align 8, !tbaa !77
  %8 = getelementptr inbounds nuw %"struct.std::_Deque_iterator", ptr %7, i32 0, i32 0
  %9 = load ptr, ptr %8, align 8, !tbaa !79
  store ptr %9, ptr %6, align 8, !tbaa !79
  %10 = getelementptr inbounds nuw %"struct.std::_Deque_iterator", ptr %5, i32 0, i32 1
  %11 = load ptr, ptr %4, align 8, !tbaa !77
  %12 = getelementptr inbounds nuw %"struct.std::_Deque_iterator", ptr %11, i32 0, i32 1
  %13 = load ptr, ptr %12, align 8, !tbaa !80
  store ptr %13, ptr %10, align 8, !tbaa !80
  %14 = getelementptr inbounds nuw %"struct.std::_Deque_iterator", ptr %5, i32 0, i32 2
  %15 = load ptr, ptr %4, align 8, !tbaa !77
  %16 = getelementptr inbounds nuw %"struct.std::_Deque_iterator", ptr %15, i32 0, i32 2
  %17 = load ptr, ptr %16, align 8, !tbaa !81
  store ptr %17, ptr %14, align 8, !tbaa !81
  %18 = getelementptr inbounds nuw %"struct.std::_Deque_iterator", ptr %5, i32 0, i32 3
  %19 = load ptr, ptr %4, align 8, !tbaa !77
  %20 = getelementptr inbounds nuw %"struct.std::_Deque_iterator", ptr %19, i32 0, i32 3
  %21 = load ptr, ptr %20, align 8, !tbaa !82
  store ptr %21, ptr %18, align 8, !tbaa !82
  ret void
}

; Function Attrs: mustprogress nounwind uwtable
define linkonce_odr noundef nonnull align 8 dereferenceable(32) ptr @_ZNSt15_Deque_iteratorISt4pairISt8functionIFvvEESt7promiseIbEERS6_PS6_EppEv(ptr noundef nonnull align 8 dereferenceable(32) %0) #1 comdat align 2 {
  %2 = alloca ptr, align 8
  store ptr %0, ptr %2, align 8, !tbaa !77
  %3 = load ptr, ptr %2, align 8
  %4 = getelementptr inbounds nuw %"struct.std::_Deque_iterator", ptr %3, i32 0, i32 0
  %5 = load ptr, ptr %4, align 8, !tbaa !79
  %6 = getelementptr inbounds nuw %"struct.std::pair", ptr %5, i32 1
  store ptr %6, ptr %4, align 8, !tbaa !79
  %7 = getelementptr inbounds nuw %"struct.std::_Deque_iterator", ptr %3, i32 0, i32 0
  %8 = load ptr, ptr %7, align 8, !tbaa !79
  %9 = getelementptr inbounds nuw %"struct.std::_Deque_iterator", ptr %3, i32 0, i32 2
  %10 = load ptr, ptr %9, align 8, !tbaa !81
  %11 = icmp eq ptr %8, %10
  br i1 %11, label %12, label %19

12:                                               ; preds = %1
  %13 = getelementptr inbounds nuw %"struct.std::_Deque_iterator", ptr %3, i32 0, i32 3
  %14 = load ptr, ptr %13, align 8, !tbaa !82
  %15 = getelementptr inbounds ptr, ptr %14, i64 1
  call void @_ZNSt15_Deque_iteratorISt4pairISt8functionIFvvEESt7promiseIbEERS6_PS6_E11_M_set_nodeEPS8_(ptr noundef nonnull align 8 dereferenceable(32) %3, ptr noundef %15) #22
  %16 = getelementptr inbounds nuw %"struct.std::_Deque_iterator", ptr %3, i32 0, i32 1
  %17 = load ptr, ptr %16, align 8, !tbaa !80
  %18 = getelementptr inbounds nuw %"struct.std::_Deque_iterator", ptr %3, i32 0, i32 0
  store ptr %17, ptr %18, align 8, !tbaa !79
  br label %19

19:                                               ; preds = %12, %1
  ret ptr %3
}

; Function Attrs: mustprogress nounwind uwtable
define linkonce_odr noundef nonnull align 8 dereferenceable(56) ptr @_ZNKSt15_Deque_iteratorISt4pairISt8functionIFvvEESt7promiseIbEERS6_PS6_EdeEv(ptr noundef nonnull align 8 dereferenceable(32) %0) #1 comdat align 2 {
  %2 = alloca ptr, align 8
  store ptr %0, ptr %2, align 8, !tbaa !77
  %3 = load ptr, ptr %2, align 8
  %4 = getelementptr inbounds nuw %"struct.std::_Deque_iterator", ptr %3, i32 0, i32 0
  %5 = load ptr, ptr %4, align 8, !tbaa !79
  ret ptr %5
}

; Function Attrs: mustprogress nounwind uwtable
define linkonce_odr noundef zeroext i1 @_ZStneRKSt15_Deque_iteratorISt4pairISt8functionIFvvEESt7promiseIbEERS6_PS6_ESB_(ptr noundef nonnull align 8 dereferenceable(32) %0, ptr noundef nonnull align 8 dereferenceable(32) %1) #1 comdat {
  %3 = alloca ptr, align 8
  %4 = alloca ptr, align 8
  store ptr %0, ptr %3, align 8, !tbaa !77
  store ptr %1, ptr %4, align 8, !tbaa !77
  %5 = load ptr, ptr %3, align 8, !tbaa !77
  %6 = load ptr, ptr %4, align 8, !tbaa !77
  %7 = call noundef zeroext i1 @_ZSteqRKSt15_Deque_iteratorISt4pairISt8functionIFvvEESt7promiseIbEERS6_PS6_ESB_(ptr noundef nonnull align 8 dereferenceable(32) %5, ptr noundef nonnull align 8 dereferenceable(32) %6) #22
  %8 = xor i1 %7, true
  ret i1 %8
}

; Function Attrs: mustprogress nounwind uwtable
define linkonce_odr void @_ZNSt5dequeISt4pairISt8functionIFvvEESt7promiseIbEESaIS6_EE3endEv(ptr dead_on_unwind noalias writable sret(%"struct.std::_Deque_iterator") align 8 %0, ptr noundef nonnull align 8 dereferenceable(80) %1) #1 comdat align 2 {
  %3 = alloca ptr, align 8
  %4 = alloca ptr, align 8
  store ptr %0, ptr %3, align 8
  store ptr %1, ptr %4, align 8, !tbaa !30
  %5 = load ptr, ptr %4, align 8
  %6 = getelementptr inbounds nuw %"class.std::_Deque_base", ptr %5, i32 0, i32 0
  %7 = getelementptr inbounds nuw %"struct.std::_Deque_base<std::pair<std::function<void ()>, std::promise<bool>>, std::allocator<std::pair<std::function<void ()>, std::promise<bool>>>>::_Deque_impl_data", ptr %6, i32 0, i32 3
  call void @_ZNSt15_Deque_iteratorISt4pairISt8functionIFvvEESt7promiseIbEERS6_PS6_EC2ERKS9_(ptr noundef nonnull align 8 dereferenceable(32) %0, ptr noundef nonnull align 8 dereferenceable(32) %7) #22
  ret void
}

; Function Attrs: mustprogress nounwind uwtable
define linkonce_odr void @_ZNSt5dequeISt4pairISt8functionIFvvEESt7promiseIbEESaIS6_EE5beginEv(ptr dead_on_unwind noalias writable sret(%"struct.std::_Deque_iterator") align 8 %0, ptr noundef nonnull align 8 dereferenceable(80) %1) #1 comdat align 2 {
  %3 = alloca ptr, align 8
  %4 = alloca ptr, align 8
  store ptr %0, ptr %3, align 8
  store ptr %1, ptr %4, align 8, !tbaa !30
  %5 = load ptr, ptr %4, align 8
  %6 = getelementptr inbounds nuw %"class.std::_Deque_base", ptr %5, i32 0, i32 0
  %7 = getelementptr inbounds nuw %"struct.std::_Deque_base<std::pair<std::function<void ()>, std::promise<bool>>, std::allocator<std::pair<std::function<void ()>, std::promise<bool>>>>::_Deque_impl_data", ptr %6, i32 0, i32 2
  call void @_ZNSt15_Deque_iteratorISt4pairISt8functionIFvvEESt7promiseIbEERS6_PS6_EC2ERKS9_(ptr noundef nonnull align 8 dereferenceable(32) %0, ptr noundef nonnull align 8 dereferenceable(32) %7) #22
  ret void
}

; Function Attrs: mustprogress uwtable
define void @_ZN5faiss12WorkerThread10threadMainEv(ptr noundef nonnull align 8 dereferenceable(184) %0) #0 align 2 {
  %2 = alloca ptr, align 8
  %3 = alloca ptr, align 8
  %4 = alloca %"struct.std::_Deque_iterator", align 8
  %5 = alloca %"struct.std::_Deque_iterator", align 8
  %6 = alloca ptr, align 8
  store ptr %0, ptr %2, align 8, !tbaa !4
  %7 = load ptr, ptr %2, align 8
  call void @_ZN5faiss12WorkerThread10threadLoopEv(ptr noundef nonnull align 8 dereferenceable(184) %7)
  br label %8

8:                                                ; preds = %1
  %9 = getelementptr inbounds nuw %"class.faiss::WorkerThread", ptr %7, i32 0, i32 3
  %10 = load i8, ptr %9, align 8, !tbaa !9, !range !36, !noundef !37
  %11 = trunc i8 %10 to i1
  br i1 %11, label %15, label %12

12:                                               ; preds = %8
  %13 = load ptr, ptr @stderr, align 8, !tbaa !242
  %14 = call i32 (ptr, ptr, ...) @fprintf(ptr noundef %13, ptr noundef @.str.4, ptr noundef @.str.5, ptr noundef @__PRETTY_FUNCTION__._ZN5faiss12WorkerThread10threadMainEv, ptr noundef @.str.6, i32 noundef 79) #22
  call void @abort() #23
  unreachable

15:                                               ; preds = %8
  br label %16

16:                                               ; preds = %15
  call void @llvm.lifetime.start.p0(i64 8, ptr %3) #22
  %17 = getelementptr inbounds nuw %"class.faiss::WorkerThread", ptr %7, i32 0, i32 4
  store ptr %17, ptr %3, align 8, !tbaa !30
  call void @llvm.lifetime.start.p0(i64 32, ptr %4) #22
  %18 = load ptr, ptr %3, align 8, !tbaa !30
  call void @_ZNSt5dequeISt4pairISt8functionIFvvEESt7promiseIbEESaIS6_EE5beginEv(ptr dead_on_unwind writable sret(%"struct.std::_Deque_iterator") align 8 %4, ptr noundef nonnull align 8 dereferenceable(80) %18) #22
  call void @llvm.lifetime.start.p0(i64 32, ptr %5) #22
  %19 = load ptr, ptr %3, align 8, !tbaa !30
  call void @_ZNSt5dequeISt4pairISt8functionIFvvEESt7promiseIbEESaIS6_EE3endEv(ptr dead_on_unwind writable sret(%"struct.std::_Deque_iterator") align 8 %5, ptr noundef nonnull align 8 dereferenceable(80) %19) #22
  br label %20

20:                                               ; preds = %29, %16
  %21 = call noundef zeroext i1 @_ZStneRKSt15_Deque_iteratorISt4pairISt8functionIFvvEESt7promiseIbEERS6_PS6_ESB_(ptr noundef nonnull align 8 dereferenceable(32) %4, ptr noundef nonnull align 8 dereferenceable(32) %5) #22
  br i1 %21, label %23, label %22

22:                                               ; preds = %20
  call void @llvm.lifetime.end.p0(i64 32, ptr %5) #22
  call void @llvm.lifetime.end.p0(i64 32, ptr %4) #22
  call void @llvm.lifetime.end.p0(i64 8, ptr %3) #22
  br label %31

23:                                               ; preds = %20
  call void @llvm.lifetime.start.p0(i64 8, ptr %6) #22
  %24 = call noundef nonnull align 8 dereferenceable(56) ptr @_ZNKSt15_Deque_iteratorISt4pairISt8functionIFvvEESt7promiseIbEERS6_PS6_EdeEv(ptr noundef nonnull align 8 dereferenceable(32) %4) #22
  store ptr %24, ptr %6, align 8, !tbaa !85
  %25 = load ptr, ptr %6, align 8, !tbaa !85
  %26 = getelementptr inbounds nuw %"struct.std::pair", ptr %25, i32 0, i32 0
  %27 = load ptr, ptr %6, align 8, !tbaa !85
  %28 = getelementptr inbounds nuw %"struct.std::pair", ptr %27, i32 0, i32 1
  call void @_ZN5faiss12_GLOBAL__N_111runCallbackERSt8functionIFvvEERSt7promiseIbE(ptr noundef nonnull align 8 dereferenceable(32) %26, ptr noundef nonnull align 8 dereferenceable(24) %28)
  call void @llvm.lifetime.end.p0(i64 8, ptr %6) #22
  br label %29

29:                                               ; preds = %23
  %30 = call noundef nonnull align 8 dereferenceable(32) ptr @_ZNSt15_Deque_iteratorISt4pairISt8functionIFvvEESt7promiseIbEERS6_PS6_EppEv(ptr noundef nonnull align 8 dereferenceable(32) %4) #22
  br label %20

31:                                               ; preds = %22
  ret void
}