; Function Attrs: mustprogress uwtable
define void @_ZN5faiss12WorkerThread10threadMainEv(ptr noundef nonnull align 8 dereferenceable(184) %0) local_unnamed_addr #0 align 2 {
  tail call void @_ZN5faiss12WorkerThread10threadLoopEv(ptr noundef nonnull align 8 dereferenceable(184) %0)
  %2 = getelementptr inbounds nuw i8, ptr %0, i64 96
  %3 = load i8, ptr %2, align 8, !tbaa !4, !range !50, !noundef !51
  %4 = trunc nuw i8 %3 to i1
  br i1 %4, label %8, label %5

5:                                                ; preds = %1
  %6 = load ptr, ptr @stderr, align 8, !tbaa !150
  %7 = tail call i32 (ptr, ptr, ...) @fprintf(ptr noundef %6, ptr noundef nonnull @.str.4, ptr noundef nonnull @.str.5, ptr noundef nonnull @__PRETTY_FUNCTION__._ZN5faiss12WorkerThread10threadMainEv, ptr noundef nonnull @.str.6, i32 noundef 79) #31
  tail call void @abort() #27
  unreachable

8:                                                ; preds = %1
  %9 = getelementptr inbounds nuw i8, ptr %0, i64 120
  %10 = load ptr, ptr %9, align 8, !tbaa !95, !noalias !158
  %11 = getelementptr inbounds nuw i8, ptr %0, i64 152
  %12 = load ptr, ptr %11, align 8, !tbaa !95, !noalias !161
  %.not8 = icmp eq ptr %10, %12
  br i1 %.not8, label %._crit_edge, label %.lr.ph.preheader

.lr.ph.preheader:                                 ; preds = %8
  %13 = getelementptr inbounds nuw i8, ptr %0, i64 144
  %14 = load ptr, ptr %13, align 8, !tbaa !101, !noalias !158
  %15 = getelementptr inbounds nuw i8, ptr %0, i64 136
  %16 = load ptr, ptr %15, align 8, !tbaa !100, !noalias !158
  br label %.lr.ph

._crit_edge:                                      ; preds = %_ZNSt15_Deque_iteratorISt4pairISt8functionIFvvEESt7promiseIbEERS6_PS6_EppEv.exit, %8
  ret void

.lr.ph:                                           ; preds = %.lr.ph.preheader, %_ZNSt15_Deque_iteratorISt4pairISt8functionIFvvEESt7promiseIbEERS6_PS6_EppEv.exit
  %.sroa.13.011 = phi ptr [ %.sroa.13.1, %_ZNSt15_Deque_iteratorISt4pairISt8functionIFvvEESt7promiseIbEERS6_PS6_EppEv.exit ], [ %14, %.lr.ph.preheader ]
  %.sroa.10.010 = phi ptr [ %.sroa.10.1, %_ZNSt15_Deque_iteratorISt4pairISt8functionIFvvEESt7promiseIbEERS6_PS6_EppEv.exit ], [ %16, %.lr.ph.preheader ]
  %.sroa.05.09 = phi ptr [ %.sroa.05.1, %_ZNSt15_Deque_iteratorISt4pairISt8functionIFvvEESt7promiseIbEERS6_PS6_EppEv.exit ], [ %10, %.lr.ph.preheader ]
  %17 = getelementptr inbounds nuw i8, ptr %.sroa.05.09, i64 32
  tail call fastcc void @_ZN5faiss12_GLOBAL__N_111runCallbackERSt8functionIFvvEERSt7promiseIbE(ptr noundef nonnull align 8 dereferenceable(32) %.sroa.05.09, ptr noundef nonnull align 8 dereferenceable(24) %17)
  %18 = getelementptr inbounds nuw i8, ptr %.sroa.05.09, i64 56
  %19 = icmp eq ptr %18, %.sroa.10.010
  br i1 %19, label %20, label %_ZNSt15_Deque_iteratorISt4pairISt8functionIFvvEESt7promiseIbEERS6_PS6_EppEv.exit

20:                                               ; preds = %.lr.ph
  %21 = getelementptr inbounds nuw i8, ptr %.sroa.13.011, i64 8
  %22 = load ptr, ptr %21, align 8, !tbaa !108
  %23 = getelementptr inbounds nuw i8, ptr %22, i64 504
  br label %_ZNSt15_Deque_iteratorISt4pairISt8functionIFvvEESt7promiseIbEERS6_PS6_EppEv.exit

_ZNSt15_Deque_iteratorISt4pairISt8functionIFvvEESt7promiseIbEERS6_PS6_EppEv.exit: ; preds = %.lr.ph, %20
  %.sroa.05.1 = phi ptr [ %22, %20 ], [ %18, %.lr.ph ]
  %.sroa.10.1 = phi ptr [ %23, %20 ], [ %.sroa.10.010, %.lr.ph ]
  %.sroa.13.1 = phi ptr [ %21, %20 ], [ %.sroa.13.011, %.lr.ph ]
  %.not = icmp eq ptr %.sroa.05.1, %12
  br i1 %.not, label %._crit_edge, label %.lr.ph
}